; Function Attrs: nounwind uwtable
define hidden ptr @PEM_X509_INFO_read(ptr noundef %0, ptr noundef %1, ptr noundef %2, ptr noundef %3) local_unnamed_addr #0 {
  %5 = tail call ptr @BIO_s_file() #5
  %6 = tail call ptr @BIO_new(ptr noundef %5) #5
  %7 = icmp eq ptr %6, null
  br i1 %7, label %8, label %9

8:                                                ; preds = %4
  tail call void @ERR_put_error(i32 noundef 9, i32 noundef 0, i32 noundef 7, ptr noundef nonnull @.str, i32 noundef 82) #5
  br label %13

9:                                                ; preds = %4
  %10 = tail call i32 @BIO_set_fp(ptr noundef nonnull %6, ptr noundef %0, i32 noundef 0) #5
  %11 = tail call ptr @PEM_X509_INFO_read_bio(ptr noundef nonnull %6, ptr noundef %1, ptr noundef %2, ptr noundef %3)
  %12 = tail call i32 @BIO_free(ptr noundef nonnull %6) #5
  br label %13

13:                                               ; preds = %9, %8
  %.0 = phi ptr [ null, %8 ], [ %11, %9 ]
  ret ptr %.0
}